; Function Attrs: nounwind uwtable
define hidden void @lj_gc_step_fixtop(ptr noundef %0) local_unnamed_addr #0 {
  %2 = getelementptr inbounds nuw i8, ptr %0, i64 32
  %3 = load ptr, ptr %2, align 8, !tbaa !94
  %4 = getelementptr inbounds i8, ptr %3, i64 -16
  %5 = load i64, ptr %4, align 8, !tbaa !23
  %6 = and i64 %5, 140737488355327
  %7 = inttoptr i64 %6 to ptr
  %8 = getelementptr inbounds nuw i8, ptr %7, i64 10
  %9 = load i8, ptr %8, align 2, !tbaa !23
  %10 = icmp eq i8 %9, 0
  br i1 %10, label %11, label %20

11:                                               ; preds = %1
  %12 = getelementptr inbounds nuw i8, ptr %7, i64 32
  %13 = load i64, ptr %12, align 8, !tbaa !23
  %14 = inttoptr i64 %13 to ptr
  %15 = getelementptr inbounds i8, ptr %14, i64 -93
  %16 = load i8, ptr %15, align 1, !tbaa !95
  %17 = zext i8 %16 to i64
  %18 = getelementptr inbounds nuw %union.TValue, ptr %3, i64 %17
  %19 = getelementptr inbounds nuw i8, ptr %0, i64 40
  store ptr %18, ptr %19, align 8, !tbaa !57
  br label %20

20:                                               ; preds = %11, %1
  %21 = getelementptr inbounds nuw i8, ptr %0, i64 16
  %22 = load i64, ptr %21, align 8, !tbaa !30
  %23 = inttoptr i64 %22 to ptr
  %24 = getelementptr inbounds nuw i8, ptr %23, i64 184
  %25 = load volatile i32, ptr %24, align 8, !tbaa !66
  store volatile i32 -3, ptr %24, align 8, !tbaa !66
  %26 = getelementptr inbounds nuw i8, ptr %23, i64 16
  %27 = getelementptr inbounds nuw i8, ptr %23, i64 104
  %28 = load i32, ptr %27, align 8, !tbaa !67
  %29 = mul i32 %28, 10
  %30 = zext i32 %29 to i64
  %31 = icmp eq i32 %29, 0
  %spec.store.select.i = select i1 %31, i64 140737488355328, i64 %30
  %32 = load i64, ptr %26, align 8, !tbaa !68
  %33 = getelementptr inbounds nuw i8, ptr %23, i64 24
  %34 = load i64, ptr %33, align 8, !tbaa !41
  %35 = icmp ugt i64 %32, %34
  br i1 %35, label %36, label %41

36:                                               ; preds = %20
  %37 = sub nuw i64 %32, %34
  %38 = getelementptr inbounds nuw i8, ptr %23, i64 88
  %39 = load i64, ptr %38, align 8, !tbaa !69
  %40 = add i64 %37, %39
  store i64 %40, ptr %38, align 8, !tbaa !69
  br label %41

41:                                               ; preds = %36, %20
  %42 = getelementptr inbounds nuw i8, ptr %23, i64 33
  br label %43

43:                                               ; preds = %55, %41
  %.029.i = phi i64 [ %spec.store.select.i, %41 ], [ %56, %55 ]
  %44 = tail call fastcc i64 @gc_onestep(ptr noundef %0)
  %45 = load i8, ptr %42, align 1, !tbaa !70
  %46 = icmp eq i8 %45, 0
  br i1 %46, label %47, label %55

47:                                               ; preds = %43
  %48 = getelementptr inbounds nuw i8, ptr %23, i64 96
  %49 = load i64, ptr %48, align 8, !tbaa !71
  %50 = udiv i64 %49, 100
  %51 = getelementptr inbounds nuw i8, ptr %23, i64 108
  %52 = load i32, ptr %51, align 4, !tbaa !72
  %53 = zext i32 %52 to i64
  %54 = mul i64 %50, %53
  br label %lj_gc_step.exit

55:                                               ; preds = %43
  %56 = sub nsw i64 %.029.i, %44
  %57 = icmp sgt i64 %56, 0
  br i1 %57, label %43, label %58, !llvm.loop !73

58:                                               ; preds = %55
  %59 = getelementptr inbounds nuw i8, ptr %23, i64 88
  %60 = load i64, ptr %59, align 8, !tbaa !69
  %61 = icmp ult i64 %60, 1024
  br i1 %61, label %62, label %65

62:                                               ; preds = %58
  %63 = load i64, ptr %26, align 8, !tbaa !68
  %64 = add i64 %63, 1024
  br label %lj_gc_step.exit

65:                                               ; preds = %58
  %66 = add i64 %60, -1024
  store i64 %66, ptr %59, align 8, !tbaa !69
  %67 = load i64, ptr %26, align 8, !tbaa !68
  br label %lj_gc_step.exit

lj_gc_step.exit:                                  ; preds = %47, %62, %65
  %.sink.i = phi i64 [ %67, %65 ], [ %64, %62 ], [ %54, %47 ]
  store i64 %.sink.i, ptr %33, align 8, !tbaa !41
  store volatile i32 %25, ptr %24, align 8, !tbaa !66
  ret void
}